; Function Attrs: mustprogress uwtable
define void @_ZNK9grpc_core20FaultInjectionFilter17InjectionDecision10MaybeAbortEv(ptr dead_on_unwind noalias writable writeonly sret(%"class.absl::lts_20240722::Status") align 8 captures(none) %0, ptr noundef nonnull readonly align 8 captures(none) dereferenceable(33) %1) local_unnamed_addr #3 align 2 personality ptr @__gxx_personality_v0 {
  %3 = getelementptr inbounds nuw i8, ptr %1, i64 16
  %4 = getelementptr inbounds nuw i8, ptr %1, i64 24
  %5 = load i8, ptr %4, align 8, !tbaa !68, !range !63, !noundef !64
  %6 = trunc nuw i8 %5 to i1
  br i1 %6, label %7, label %22

7:                                                ; preds = %2
  %8 = getelementptr inbounds nuw i8, ptr %1, i64 8
  %9 = load i64, ptr %8, align 8, !tbaa !51
  %.not = icmp eq i64 %9, 0
  br i1 %.not, label %10, label %_ZNKRSt8optionalIN4absl12lts_202407226StatusEE5valueEv.exit

10:                                               ; preds = %7
  %11 = load atomic i32, ptr @_ZN9grpc_core12_GLOBAL__N_115g_active_faultsE acquire, align 4
  %12 = load i32, ptr %1, align 8, !tbaa !53
  %13 = icmp ult i32 %11, %12
  br i1 %13, label %14, label %22

14:                                               ; preds = %10
  %.pre = load i8, ptr %4, align 8, !tbaa !68, !range !63
  %15 = trunc nuw i8 %.pre to i1
  br i1 %15, label %_ZNKRSt8optionalIN4absl12lts_202407226StatusEE5valueEv.exit, label %16

16:                                               ; preds = %14
  tail call void @_ZSt27__throw_bad_optional_accessv() #40
  unreachable

_ZNKRSt8optionalIN4absl12lts_202407226StatusEE5valueEv.exit: ; preds = %7, %14
  %17 = load i64, ptr %3, align 8, !tbaa !11
  store i64 %17, ptr %0, align 8, !tbaa !11
  %18 = and i64 %17, 1
  %.not.i.i = icmp eq i64 %18, 0
  br i1 %.not.i.i, label %19, label %_ZN4absl12lts_202407226StatusC2ERKS1_.exit

19:                                               ; preds = %_ZNKRSt8optionalIN4absl12lts_202407226StatusEE5valueEv.exit
  %20 = inttoptr i64 %17 to ptr
  %21 = atomicrmw add ptr %20, i32 1 monotonic, align 4
  br label %_ZN4absl12lts_202407226StatusC2ERKS1_.exit

22:                                               ; preds = %10, %2
  store i64 1, ptr %0, align 8, !tbaa !11, !alias.scope !154
  br label %_ZN4absl12lts_202407226StatusC2ERKS1_.exit

_ZN4absl12lts_202407226StatusC2ERKS1_.exit:       ; preds = %19, %_ZNKRSt8optionalIN4absl12lts_202407226StatusEE5valueEv.exit, %22
  ret void
}